(dp1
S'cmsy10'
p2
(dp3
S'normal'
p4
(dp5
g4
(dp6
I400
(dp7
g4
(dp8
S'scalable'
p9
S'/usr/share/matplotlib/mpl-data/cmsy10.ttf'
p10
ssssssS'Wargames'
p11
(dp12
g4
(dp13
g4
(dp14
I400
(dp15
g4
(dp16
g9
S'/usr/share/fonts/truetype/dustin/Wargames.ttf'
p17
ssssssS'DejaVu Sans Mono'
p18
(dp19
S'oblique'
p20
(dp21
g4
(dp22
I400
(dp23
g4
(dp24
g9
S'/usr/share/fonts/truetype/ttf-dejavu/DejaVuSansMono-Oblique.ttf'
p25
sssI700
(dp26
g4
(dp27
g9
S'/usr/share/fonts/truetype/ttf-dejavu/DejaVuSansMono-BoldOblique.ttf'
p28
sssssg4
(dp29
g4
(dp30
I400
(dp31
g4
(dp32
g9
S'/usr/share/fonts/truetype/ttf-dejavu/DejaVuSansMono.ttf'
p33
sssI700
(dp34
g4
(dp35
g9
S'/usr/share/fonts/truetype/ttf-dejavu/DejaVuSansMono-Bold.ttf'
p36
ssssssS'cmr10'
p37
(dp38
g4
(dp39
g4
(dp40
I400
(dp41
g4
(dp42
g9
S'/usr/share/matplotlib/mpl-data/cmr10.ttf'
p43
ssssssS'Dustismo'
p44
(dp45
S'italic'
p46
(dp47
g4
(dp48
I400
(dp49
g4
(dp50
g9
S'/usr/share/fonts/truetype/dustin/dustismo_italic.ttf'
p51
sssI700
(dp52
g4
(dp53
g9
S'/usr/share/fonts/truetype/dustin/dustismo_bold_italic.ttf'
p54
sssssg4
(dp55
g4
(dp56
I400
(dp57
g4
(dp58
g9
S'/usr/share/fonts/truetype/dustin/Dustismo.ttf'
p59
sssI700
(dp60
g4
(dp61
g9
S'/usr/share/fonts/truetype/dustin/dustismo_bold.ttf'
p62
ssssssS'flatline'
p63
(dp64
g4
(dp65
g4
(dp66
I400
(dp67
g4
(dp68
g9
S'/usr/share/fonts/truetype/dustin/flatline.ttf'
p69
ssssssS'progenisis'
p70
(dp71
g4
(dp72
g4
(dp73
I400
(dp74
g4
(dp75
g9
S'/usr/share/fonts/truetype/dustin/progenisis.ttf'
p76
ssssssS'Junkyard'
p77
(dp78
g4
(dp79
g4
(dp80
I400
(dp81
g4
(dp82
g9
S'/usr/share/fonts/truetype/dustin/Junkyard.ttf'
p83
ssssssS'Balker'
p84
(dp85
g4
(dp86
g4
(dp87
I400
(dp88
g4
(dp89
g9
S'/usr/share/fonts/truetype/dustin/Balker.ttf'
p90
ssssssS'Swift'
p91
(dp92
g4
(dp93
g4
(dp94
I400
(dp95
g4
(dp96
g9
S'/usr/share/fonts/truetype/dustin/Swift.ttf'
p97
ssssssS'Domestic Manners'
p98
(dp99
g4
(dp100
g4
(dp101
I400
(dp102
g4
(dp103
g9
S'/usr/share/fonts/truetype/dustin/Domestic_Manners.ttf'
p104
ssssssS'Penguin Attack'
p105
(dp106
g4
(dp107
g4
(dp108
I400
(dp109
g4
(dp110
g9
S'/usr/share/fonts/truetype/dustin/PenguinAttack.ttf'
p111
ssssssS'Marked Fool'
p112
(dp113
g4
(dp114
g4
(dp115
I400
(dp116
g4
(dp117
g9
S'/usr/share/fonts/truetype/dustin/MarkedFool.ttf'
p118
ssssssS'Winks'
p119
(dp120
g4
(dp121
g4
(dp122
I400
(dp123
g4
(dp124
g9
S'/usr/share/fonts/truetype/dustin/Winks.ttf'
p125
ssssssS'DejaVu Sans'
p126
(dp127
g20
(dp128
g4
(dp129
I400
(dp130
S'condensed'
p131
(dp132
g9
S'/usr/share/fonts/truetype/ttf-dejavu/DejaVuSansCondensed-Oblique.ttf'
p133
ssg4
(dp134
g9
S'/usr/share/fonts/truetype/ttf-dejavu/DejaVuSans-Oblique.ttf'
p135
sssI700
(dp136
g131
(dp137
g9
S'/usr/share/fonts/truetype/ttf-dejavu/DejaVuSansCondensed-BoldOblique.ttf'
p138
ssg4
(dp139
g9
S'/usr/share/fonts/truetype/ttf-dejavu/DejaVuSans-BoldOblique.ttf'
p140
sssssg4
(dp141
g4
(dp142
I400
(dp143
g131
(dp144
g9
S'/usr/share/fonts/truetype/ttf-dejavu/DejaVuSansCondensed.ttf'
p145
ssg4
(dp146
g9
S'/usr/share/fonts/truetype/ttf-dejavu/DejaVuSans.ttf'
p147
sssI200
(dp148
g4
(dp149
g9
S'/usr/share/fonts/truetype/ttf-dejavu/DejaVuSans-ExtraLight.ttf'
p150
sssI700
(dp151
g131
(dp152
g9
S'/usr/share/fonts/truetype/ttf-dejavu/DejaVuSansCondensed-Bold.ttf'
p153
ssg4
(dp154
g9
S'/usr/share/fonts/truetype/ttf-dejavu/DejaVuSans-Bold.ttf'
p155
ssssssS'cmtt10'
p156
(dp157
g4
(dp158
g4
(dp159
I400
(dp160
g4
(dp161
g9
S'/usr/share/matplotlib/mpl-data/cmtt10.ttf'
p162
ssssssS"It wasn't me"
p163
(dp164
g4
(dp165
g4
(dp166
I400
(dp167
g4
(dp168
g9
S'/usr/share/fonts/truetype/dustin/It_wasn_t_me.ttf'
p169
ssssssS'cmex10'
p170
(dp171
g4
(dp172
g4
(dp173
I400
(dp174
g4
(dp175
g9
S'/usr/share/matplotlib/mpl-data/cmex10.ttf'
p176
ssssssS'Dustismo Roman'
p177
(dp178
g46
(dp179
g4
(dp180
I700
(dp181
g4
(dp182
g9
S'/usr/share/fonts/truetype/dustin/Dustismo_Roman_Italic_Bold.ttf'
p183
sssI500
(dp184
g4
(dp185
g9
S'/usr/share/fonts/truetype/dustin/Dustismo_Roman_Italic.ttf'
p186
sssssg4
(dp187
g4
(dp188
I500
(dp189
g4
(dp190
g9
S'/usr/share/fonts/truetype/dustin/Dustismo_Roman.ttf'
p191
sssI700
(dp192
g4
(dp193
g9
S'/usr/share/fonts/truetype/dustin/Dustismo_Roman_Bold.ttf'
p194
ssssssS'El Abogado Loco'
p195
(dp196
g4
(dp197
g4
(dp198
I400
(dp199
g4
(dp200
g9
S'/usr/share/fonts/truetype/dustin/El_Abogado_Loco.ttf'
p201
ssssssS'DejaVu Serif'
p202
(dp203
g20
(dp204
g4
(dp205
I400
(dp206
g131
(dp207
g9
S'/usr/share/fonts/truetype/ttf-dejavu/DejaVuSerifCondensed-Oblique.ttf'
p208
ssg4
(dp209
g9
S'/usr/share/fonts/truetype/ttf-dejavu/DejaVuSerif-Oblique.ttf'
p210
sssI700
(dp211
g131
(dp212
g9
S'/usr/share/fonts/truetype/ttf-dejavu/DejaVuSerifCondensed-BoldOblique.ttf'
p213
ssg4
(dp214
g9
S'/usr/share/fonts/truetype/ttf-dejavu/DejaVuSerif-BoldOblique.ttf'
p215
sssssg4
(dp216
g4
(dp217
I400
(dp218
g131
(dp219
g9
S'/usr/share/fonts/truetype/ttf-dejavu/DejaVuSerifCondensed.ttf'
p220
ssg4
(dp221
g9
S'/usr/share/fonts/truetype/ttf-dejavu/DejaVuSerif.ttf'
p222
sssI700
(dp223
g131
(dp224
g9
S'/usr/share/fonts/truetype/ttf-dejavu/DejaVuSerifCondensed-Bold.ttf'
p225
ssg4
(dp226
g9
S'/usr/share/fonts/truetype/ttf-dejavu/DejaVuSerif-Bold.ttf'
p227
ssssssS'cmmi10'
p228
(dp229
g4
(dp230
g4
(dp231
I400
(dp232
g4
(dp233
g9
S'/usr/share/matplotlib/mpl-data/cmmi10.ttf'
p234
ssssss.